	.file	"bounds.c"
# GNU C89 (Ubuntu 7.5.0-6ubuntu2) version 7.5.0 (x86_64-linux-gnu)
#	compiled by GNU C version 7.5.0, GMP version 6.2.0, MPFR version 4.0.2, MPC version 1.1.0, isl version isl-0.22.1-GMP

# GGC heuristics: --param ggc-min-expand=100 --param ggc-min-heapsize=131072
# options passed:  -nostdinc -I ./arch/x86/include
# -I ./arch/x86/include/generated -I ./include -I ./arch/x86/include/uapi
# -I ./arch/x86/include/generated/uapi -I ./include/uapi
# -I ./include/generated/uapi -imultiarch x86_64-linux-gnu -D __KERNEL__
# -D CONFIG_AS_CFI=1 -D CONFIG_AS_CFI_SIGNAL_FRAME=1
# -D CONFIG_AS_CFI_SECTIONS=1 -D CONFIG_AS_FXSAVEQ=1 -D CONFIG_AS_SSSE3=1
# -D CONFIG_AS_CRC32=1 -D CONFIG_AS_AVX=1 -D CONFIG_AS_AVX2=1
# -D CONFIG_AS_AVX512=1 -D CONFIG_AS_SHA1_NI=1 -D CONFIG_AS_SHA256_NI=1
# -D CC_HAVE_ASM_GOTO -D KBUILD_BASENAME="bounds"
# -D KBUILD_MODNAME="bounds"
# -isystem /usr/lib/gcc/x86_64-linux-gnu/7/include
# -include ./include/linux/kconfig.h -MD kernel/.bounds.s.d kernel/bounds.c
# -mno-sse -mno-mmx -mno-sse2 -mno-3dnow -mno-avx -m64 -mno-80387
# -mno-fp-ret-in-387 -mpreferred-stack-boundary=3 -mskip-rax-setup
# -mtune=generic -mno-red-zone -mcmodel=kernel -march=x86-64
# -auxbase-strip kernel/bounds.s -g -O2 -Wall -Wundef -Wstrict-prototypes
# -Wno-trigraphs -Werror=implicit-function-declaration -Wno-format-security
# -Wno-sign-compare -Wno-frame-address -Wformat-truncation=0
# -Wformat-overflow=0 -Wno-int-in-bool-context -Wframe-larger-than=1024
# -Wno-unused-but-set-variable -Wunused-const-variable=0
# -Wdeclaration-after-statement -Wno-pointer-sign -Werror=implicit-int
# -Werror=strict-prototypes -Werror=date-time
# -Werror=incompatible-pointer-types -Werror=designated-init -std=gnu90
# -fno-strict-aliasing -fno-common -fshort-wchar -fno-PIE -falign-jumps=1
# -falign-loops=1 -funit-at-a-time -fno-asynchronous-unwind-tables
# -fno-delete-null-pointer-checks -fno-stack-protector
# -fno-omit-frame-pointer -fno-optimize-sibling-calls
# -fno-var-tracking-assignments -fno-strict-overflow -fstack-check=no
# -fconserve-stack -fverbose-asm --param allow-store-data-races=0
# options enabled:  -faggressive-loop-optimizations -falign-labels
# -fauto-inc-dec -fbranch-count-reg -fcaller-saves
# -fchkp-check-incomplete-type -fchkp-check-read -fchkp-check-write
# -fchkp-instrument-calls -fchkp-narrow-bounds -fchkp-optimize
# -fchkp-store-bounds -fchkp-use-static-bounds
# -fchkp-use-static-const-bounds -fchkp-use-wrappers -fcode-hoisting
# -fcombine-stack-adjustments -fcompare-elim -fcprop-registers
# -fcrossjumping -fcse-follow-jumps -fdefer-pop -fdevirtualize
# -fdevirtualize-speculatively -fdwarf2-cfi-asm -fearly-inlining
# -feliminate-unused-debug-types -fexpensive-optimizations
# -fforward-propagate -ffp-int-builtin-inexact -ffunction-cse -fgcse
# -fgcse-lm -fgnu-runtime -fgnu-unique -fguess-branch-probability
# -fhoist-adjacent-loads -fident -fif-conversion -fif-conversion2
# -findirect-inlining -finline -finline-atomics
# -finline-functions-called-once -finline-small-functions -fipa-bit-cp
# -fipa-cp -fipa-icf -fipa-icf-functions -fipa-icf-variables -fipa-profile
# -fipa-pure-const -fipa-ra -fipa-reference -fipa-sra -fipa-vrp
# -fira-hoist-pressure -fira-share-save-slots -fira-share-spill-slots
# -fisolate-erroneous-paths-dereference -fivopts -fkeep-static-consts
# -fleading-underscore -flifetime-dse -flra-remat -flto-odr-type-merging
# -fmath-errno -fmerge-constants -fmerge-debug-strings
# -fmove-loop-invariants -foptimize-strlen -fpartial-inlining -fpeephole
# -fpeephole2 -fplt -fprefetch-loop-arrays -free -freg-struct-return
# -freorder-blocks -freorder-functions -frerun-cse-after-loop
# -fsched-critical-path-heuristic -fsched-dep-count-heuristic
# -fsched-group-heuristic -fsched-interblock -fsched-last-insn-heuristic
# -fsched-rank-heuristic -fsched-spec -fsched-spec-insn-heuristic
# -fsched-stalled-insns-dep -fschedule-fusion -fschedule-insns2
# -fsemantic-interposition -fshow-column -fshrink-wrap
# -fshrink-wrap-separate -fsigned-zeros -fsplit-ivs-in-unroller
# -fsplit-wide-types -fssa-backprop -fssa-phiopt -fstdarg-opt
# -fstore-merging -fstrict-volatile-bitfields -fsync-libcalls
# -fthread-jumps -ftoplevel-reorder -ftrapping-math -ftree-bit-ccp
# -ftree-builtin-call-dce -ftree-ccp -ftree-ch -ftree-coalesce-vars
# -ftree-copy-prop -ftree-cselim -ftree-dce -ftree-dominator-opts
# -ftree-dse -ftree-forwprop -ftree-fre -ftree-loop-if-convert
# -ftree-loop-im -ftree-loop-ivcanon -ftree-loop-optimize
# -ftree-parallelize-loops= -ftree-phiprop -ftree-pre -ftree-pta
# -ftree-reassoc -ftree-scev-cprop -ftree-sink -ftree-slsr -ftree-sra
# -ftree-switch-conversion -ftree-tail-merge -ftree-ter -ftree-vrp
# -funit-at-a-time -fvar-tracking -fverbose-asm -fzero-initialized-in-bss
# -m128bit-long-double -m64 -malign-stringops -mavx256-split-unaligned-load
# -mavx256-split-unaligned-store -mfxsr -mglibc -mieee-fp -mlong-double-80
# -mno-fancy-math-387 -mno-red-zone -mno-sse4 -mpush-args -mskip-rax-setup
# -mtls-direct-seg-refs -mvzeroupper

	.text
.Ltext0:
	.cfi_sections	.debug_frame
	.p2align 4,,15
	.globl	foo
	.type	foo, @function
foo:
.LFB154:
	.file 1 "kernel/bounds.c"
	.loc 1 17 0
	.cfi_startproc
	pushq	%rbp	#
	.cfi_def_cfa_offset 16
	.cfi_offset 6, -16
	movq	%rsp, %rbp	#,
	.cfi_def_cfa_register 6
# kernel/bounds.c:19: 	DEFINE(NR_PAGEFLAGS, __NR_PAGEFLAGS);
	.loc 1 19 0
#APP
# 19 "kernel/bounds.c" 1
	
.ascii "->NR_PAGEFLAGS $23 __NR_PAGEFLAGS"	#
# 0 "" 2
# kernel/bounds.c:20: 	DEFINE(MAX_NR_ZONES, __MAX_NR_ZONES);
	.loc 1 20 0
# 20 "kernel/bounds.c" 1
	
.ascii "->MAX_NR_ZONES $3 __MAX_NR_ZONES"	#
# 0 "" 2
# kernel/bounds.c:24: 	DEFINE(SPINLOCK_SIZE, sizeof(spinlock_t));
	.loc 1 24 0
# 24 "kernel/bounds.c" 1
	
.ascii "->SPINLOCK_SIZE $0 sizeof(spinlock_t)"	#
# 0 "" 2
# kernel/bounds.c:26: }
	.loc 1 26 0
#NO_APP
	popq	%rbp	#
	.cfi_restore 6
	.cfi_def_cfa 7, 8
	ret
	.cfi_endproc
.LFE154:
	.size	foo, .-foo
.Letext0:
	.file 2 "./include/linux/types.h"
	.file 3 "./arch/x86/include/asm/alternative.h"
	.file 4 "./arch/x86/include/asm/nops.h"
	.file 5 "./include/linux/init.h"
	.file 6 "./include/linux/printk.h"
	.file 7 "./include/linux/kernel.h"
	.file 8 "./include/linux/page-flags.h"
	.file 9 "./include/linux/mmzone.h"
	.file 10 "./include/linux/lockdep.h"
	.file 11 "./arch/x86/include/asm/asm.h"
	.section	.note.GNU-stack,"",@progbits
